; Function Attrs: nofree nounwind uwtable
define internal fastcc void @entityTrackingOnOpen(ptr noundef %0, ptr noundef readonly captures(none) %1, i32 noundef range(i32 5558, 6283) %2) unnamed_addr #13 {
  br label %4

4:                                                ; preds = %4, %3
  %.07.i = phi ptr [ %0, %3 ], [ %6, %4 ]
  %5 = getelementptr inbounds nuw i8, ptr %.07.i, i64 912
  %6 = load ptr, ptr %5, align 8, !tbaa !66
  %.not.i = icmp eq ptr %6, null
  br i1 %.not.i, label %getRootParserOf.exit, label %4, !llvm.loop !226

getRootParserOf.exit:                             ; preds = %4
  %7 = getelementptr inbounds nuw i8, ptr %.07.i, i64 984
  %8 = load i32, ptr %7, align 8, !tbaa !291
  %9 = add i32 %8, 1
  store i32 %9, ptr %7, align 8, !tbaa !291
  %10 = getelementptr inbounds nuw i8, ptr %.07.i, i64 988
  %11 = load i32, ptr %10, align 4, !tbaa !292
  %12 = add i32 %11, 1
  store i32 %12, ptr %10, align 4, !tbaa !292
  %13 = getelementptr inbounds nuw i8, ptr %.07.i, i64 992
  %14 = load i32, ptr %13, align 8, !tbaa !293
  %15 = icmp ugt i32 %12, %14
  br i1 %15, label %16, label %18

16:                                               ; preds = %getRootParserOf.exit
  %17 = add nuw i32 %14, 1
  store i32 %17, ptr %13, align 8, !tbaa !293
  br label %18

18:                                               ; preds = %16, %getRootParserOf.exit
  %19 = phi i32 [ %17, %16 ], [ %14, %getRootParserOf.exit ]
  %20 = getelementptr inbounds nuw i8, ptr %.07.i, i64 1000
  %21 = load i64, ptr %20, align 8, !tbaa !121
  %22 = icmp eq i64 %21, 0
  br i1 %22, label %entityTrackingReportStats.exit, label %23

23:                                               ; preds = %18
  %24 = load ptr, ptr %1, align 8, !tbaa !256
  %25 = load ptr, ptr @stderr, align 8, !tbaa !194
  %26 = shl i32 %12, 1
  %27 = add i32 %26, -2
  %28 = getelementptr inbounds nuw i8, ptr %1, i64 57
  %29 = load i8, ptr %28, align 1, !tbaa !257
  %.not.i8 = icmp eq i8 %29, 0
  %30 = select i1 %.not.i8, ptr @.str.91, ptr @.str.90
  %31 = getelementptr inbounds nuw i8, ptr %1, i64 16
  %32 = load i32, ptr %31, align 8, !tbaa !255
  %33 = tail call i32 (ptr, ptr, ...) @fprintf(ptr noundef %25, ptr noundef nonnull @.str.322, ptr noundef nonnull %.07.i, i32 noundef %9, i32 noundef %12, i32 noundef %19, i32 noundef %27, ptr noundef nonnull @.str.312, ptr noundef nonnull %30, ptr noundef %24, ptr noundef nonnull @.str.321, i32 noundef %32, i32 noundef range(i32 5558, 6288) %2) #28
  br label %entityTrackingReportStats.exit

entityTrackingReportStats.exit:                   ; preds = %18, %23
  ret void
}